target datalayout = "e-m:e-p270:32:32-p271:32:32-p272:64:64-i64:64-i128:128-f80:128-n8:16:32:64-S128"
target triple = "x86_64-pc-linux-gnu"

%"class.std::__cxx11::basic_string" = type { %"struct.std::__cxx11::basic_string<char>::_Alloc_hider", i64, %union.anon }
%"struct.std::__cxx11::basic_string<char>::_Alloc_hider" = type { ptr }
%union.anon = type { i64, [8 x i8] }
%"class.std::allocator.0" = type { i8 }

@.str.6 = private unnamed_addr constant [17 x i8] c"non-zero padding\00", align 1
@_ZTIN3nix18SerialisationErrorE = linkonce_odr constant { ptr, ptr, ptr } { ptr getelementptr inbounds (ptr, ptr @_ZTVN10__cxxabiv120__si_class_type_infoE, i64 2), ptr @_ZTSN3nix18SerialisationErrorE, ptr @_ZTIN3nix5ErrorE }, comdat, align 8

; Function Attrs: mustprogress uwtable
define void @_ZN3nix6SourceclEPcm(ptr noundef nonnull align 8 dereferenceable(8) %0, ptr noundef %1, i64 noundef %2) #3 align 2 {
  %4 = alloca ptr, align 8
  %5 = alloca ptr, align 8
  %6 = alloca i64, align 8
  %7 = alloca i64, align 8
  store ptr %0, ptr %4, align 8
  store ptr %1, ptr %5, align 8
  store i64 %2, ptr %6, align 8
  %8 = load ptr, ptr %4, align 8
  br label %9

9:                                                ; preds = %12, %3
  %10 = load i64, ptr %6, align 8
  %11 = icmp ne i64 %10, 0
  br i1 %11, label %12, label %25

12:                                               ; preds = %9
  %13 = load ptr, ptr %5, align 8
  %14 = load i64, ptr %6, align 8
  %15 = load ptr, ptr %8, align 8
  %16 = getelementptr inbounds ptr, ptr %15, i64 2
  %17 = load ptr, ptr %16, align 8
  %18 = call noundef i64 %17(ptr noundef nonnull align 8 dereferenceable(8) %8, ptr noundef %13, i64 noundef %14)
  store i64 %18, ptr %7, align 8
  %19 = load i64, ptr %7, align 8
  %20 = load ptr, ptr %5, align 8
  %21 = getelementptr inbounds i8, ptr %20, i64 %19
  store ptr %21, ptr %5, align 8
  %22 = load i64, ptr %7, align 8
  %23 = load i64, ptr %6, align 8
  %24 = sub i64 %23, %22
  store i64 %24, ptr %6, align 8
  br label %9, !llvm.loop !8

25:                                               ; preds = %9
  ret void
}

; Function Attrs: mustprogress uwtable
define void @_ZN3nix11readPaddingEmRNS_6SourceE(i64 noundef %0, ptr noundef nonnull align 8 dereferenceable(8) %1) #3 personality ptr @__gxx_personality_v0 {
  %3 = alloca i64, align 8
  %4 = alloca ptr, align 8
  %5 = alloca [8 x i8], align 1
  %6 = alloca i64, align 8
  %7 = alloca i32, align 4
  %8 = alloca %"class.std::__cxx11::basic_string", align 8
  %9 = alloca %"class.std::allocator.0", align 1
  %10 = alloca ptr, align 8
  %11 = alloca i32, align 4
  %12 = alloca i1, align 1
  store i64 %0, ptr %3, align 8
  store ptr %1, ptr %4, align 8
  %13 = load i64, ptr %3, align 8
  %14 = urem i64 %13, 8
  %15 = icmp ne i64 %14, 0
  br i1 %15, label %16, label %55

16:                                               ; preds = %2
  %17 = load i64, ptr %3, align 8
  %18 = urem i64 %17, 8
  %19 = sub i64 8, %18
  store i64 %19, ptr %6, align 8
  %20 = load ptr, ptr %4, align 8
  %21 = getelementptr inbounds [8 x i8], ptr %5, i64 0, i64 0
  %22 = load i64, ptr %6, align 8
  call void @_ZN3nix6SourceclEPcm(ptr noundef nonnull align 8 dereferenceable(8) %20, ptr noundef %21, i64 noundef %22)
  store i32 0, ptr %7, align 4
  br label %23

23:                                               ; preds = %51, %16
  %24 = load i32, ptr %7, align 4
  %25 = zext i32 %24 to i64
  %26 = load i64, ptr %6, align 8
  %27 = icmp ult i64 %25, %26
  br i1 %27, label %28, label %54

28:                                               ; preds = %23
  %29 = load i32, ptr %7, align 4
  %30 = zext i32 %29 to i64
  %31 = getelementptr inbounds [8 x i8], ptr %5, i64 0, i64 %30
  %32 = load i8, ptr %31, align 1
  %33 = icmp ne i8 %32, 0
  br i1 %33, label %34, label %50

34:                                               ; preds = %28
  store i1 true, ptr %12, align 1
  %35 = call ptr @__cxa_allocate_exception(i64 376) #1
  call void @_ZNSaIcEC1Ev(ptr noundef nonnull align 1 dereferenceable(1) %9) #1
  invoke void @_ZNSt7__cxx1112basic_stringIcSt11char_traitsIcESaIcEEC2IS3_EEPKcRKS3_(ptr noundef nonnull align 8 dereferenceable(32) %8, ptr noundef @.str.6, ptr noundef nonnull align 1 dereferenceable(1) %9)
          to label %36 unwind label %38

36:                                               ; preds = %34
  invoke void @_ZN3nix18SerialisationErrorCI2NS_9BaseErrorEIJEEERKNSt7__cxx1112basic_stringIcSt11char_traitsIcESaIcEEEDpRKT_(ptr noundef nonnull align 8 dereferenceable(376) %35, ptr noundef nonnull align 8 dereferenceable(32) %8)
          to label %37 unwind label %42

37:                                               ; preds = %36
  store i1 false, ptr %12, align 1
  invoke void @__cxa_throw(ptr %35, ptr @_ZTIN3nix18SerialisationErrorE, ptr @_ZN3nix18SerialisationErrorD2Ev) #23
          to label %61 unwind label %42

38:                                               ; preds = %34
  %39 = landingpad { ptr, i32 }
          cleanup
  %40 = extractvalue { ptr, i32 } %39, 0
  store ptr %40, ptr %10, align 8
  %41 = extractvalue { ptr, i32 } %39, 1
  store i32 %41, ptr %11, align 4
  br label %46

42:                                               ; preds = %37, %36
  %43 = landingpad { ptr, i32 }
          cleanup
  %44 = extractvalue { ptr, i32 } %43, 0
  store ptr %44, ptr %10, align 8
  %45 = extractvalue { ptr, i32 } %43, 1
  store i32 %45, ptr %11, align 4
  call void @_ZNSt7__cxx1112basic_stringIcSt11char_traitsIcESaIcEED2Ev(ptr noundef nonnull align 8 dereferenceable(32) %8) #1
  br label %46

46:                                               ; preds = %42, %38
  call void @_ZNSaIcED1Ev(ptr noundef nonnull align 1 dereferenceable(1) %9) #1
  %47 = load i1, ptr %12, align 1
  br i1 %47, label %48, label %49

48:                                               ; preds = %46
  call void @__cxa_free_exception(ptr %35) #1
  br label %49

49:                                               ; preds = %48, %46
  br label %56

50:                                               ; preds = %28
  br label %51

51:                                               ; preds = %50
  %52 = load i32, ptr %7, align 4
  %53 = add i32 %52, 1
  store i32 %53, ptr %7, align 4
  br label %23, !llvm.loop !11

54:                                               ; preds = %23
  br label %55

55:                                               ; preds = %54, %2
  ret void

56:                                               ; preds = %49
  %57 = load ptr, ptr %10, align 8
  %58 = load i32, ptr %11, align 4
  %59 = insertvalue { ptr, i32 } poison, ptr %57, 0
  %60 = insertvalue { ptr, i32 } %59, i32 %58, 1
  resume { ptr, i32 } %60

61:                                               ; preds = %37
  unreachable
}