; Function Attrs: mustprogress uwtable
define void @_ZN3nix11readPaddingEmRNS_6SourceE(i64 noundef %0, ptr noundef nonnull align 8 dereferenceable(8) %1) local_unnamed_addr #2 personality ptr @__gxx_personality_v0 {
  %3 = alloca [8 x i8], align 1
  %4 = alloca %"class.std::__cxx11::basic_string", align 8
  %5 = alloca %"class.std::allocator.0", align 1
  %6 = and i64 %0, 7
  %.not = icmp eq i64 %6, 0
  br i1 %.not, label %.loopexit, label %7

7:                                                ; preds = %2
  %8 = sub nuw nsw i64 8, %6
  br label %.lr.ph.i

.lr.ph.i:                                         ; preds = %.lr.ph.i, %7
  %.010.i = phi ptr [ %13, %.lr.ph.i ], [ %3, %7 ]
  %.079.i = phi i64 [ %14, %.lr.ph.i ], [ %8, %7 ]
  %9 = load ptr, ptr %1, align 8
  %10 = getelementptr inbounds i8, ptr %9, i64 16
  %11 = load ptr, ptr %10, align 8
  %12 = call noundef i64 %11(ptr noundef nonnull align 8 dereferenceable(8) %1, ptr noundef %.010.i, i64 noundef %.079.i)
  %13 = getelementptr inbounds i8, ptr %.010.i, i64 %12
  %14 = sub i64 %.079.i, %12
  %.not.i = icmp eq i64 %14, 0
  br i1 %.not.i, label %_ZN3nix6SourceclEPcm.exit.preheader.preheader, label %.lr.ph.i, !llvm.loop !4

_ZN3nix6SourceclEPcm.exit.preheader.preheader:    ; preds = %.lr.ph.i
  %15 = trunc i64 %8 to i32
  br label %_ZN3nix6SourceclEPcm.exit.preheader

_ZN3nix6SourceclEPcm.exit:                        ; preds = %_ZN3nix6SourceclEPcm.exit.preheader
  %16 = add nuw nsw i32 %.01221, 1
  %17 = zext nneg i32 %16 to i64
  %18 = icmp ult i32 %16, %15
  br i1 %18, label %_ZN3nix6SourceclEPcm.exit.preheader, label %.loopexit, !llvm.loop !21

_ZN3nix6SourceclEPcm.exit.preheader:              ; preds = %_ZN3nix6SourceclEPcm.exit.preheader.preheader, %_ZN3nix6SourceclEPcm.exit
  %19 = phi i64 [ %17, %_ZN3nix6SourceclEPcm.exit ], [ 0, %_ZN3nix6SourceclEPcm.exit.preheader.preheader ]
  %.01221 = phi i32 [ %16, %_ZN3nix6SourceclEPcm.exit ], [ 0, %_ZN3nix6SourceclEPcm.exit.preheader.preheader ]
  %20 = getelementptr inbounds [8 x i8], ptr %3, i64 0, i64 %19
  %21 = load i8, ptr %20, align 1
  %.not15 = icmp eq i8 %21, 0
  br i1 %.not15, label %_ZN3nix6SourceclEPcm.exit, label %22

22:                                               ; preds = %_ZN3nix6SourceclEPcm.exit.preheader
  %23 = call ptr @__cxa_allocate_exception(i64 376) #34
  call void @_ZNSaIcEC1Ev(ptr noundef nonnull align 1 dereferenceable(1) %5) #34
  invoke void @_ZNSt7__cxx1112basic_stringIcSt11char_traitsIcESaIcEEC2IS3_EEPKcRKS3_(ptr noundef nonnull align 8 dereferenceable(32) %4, ptr noundef nonnull @.str.6, ptr noundef nonnull align 1 dereferenceable(1) %5)
          to label %24 unwind label %.thread

24:                                               ; preds = %22
  invoke void @_ZN3nix18SerialisationErrorCI2NS_9BaseErrorEIJEEERKNSt7__cxx1112basic_stringIcSt11char_traitsIcESaIcEEEDpRKT_(ptr noundef nonnull align 8 dereferenceable(376) %23, ptr noundef nonnull align 8 dereferenceable(32) %4)
          to label %25 unwind label %27

25:                                               ; preds = %24
  invoke void @__cxa_throw(ptr nonnull %23, ptr nonnull @_ZTIN3nix18SerialisationErrorE, ptr nonnull @_ZN3nix18SerialisationErrorD2Ev) #37
          to label %31 unwind label %27

.thread:                                          ; preds = %22
  %26 = landingpad { ptr, i32 }
          cleanup
  call void @_ZNSaIcED1Ev(ptr noundef nonnull align 1 dereferenceable(1) %5) #34
  br label %29

27:                                               ; preds = %24, %25
  %.0 = phi i1 [ false, %25 ], [ true, %24 ]
  %28 = landingpad { ptr, i32 }
          cleanup
  call void @_ZNSt7__cxx1112basic_stringIcSt11char_traitsIcESaIcEED2Ev(ptr noundef nonnull align 8 dereferenceable(32) %4) #34
  call void @_ZNSaIcED1Ev(ptr noundef nonnull align 1 dereferenceable(1) %5) #34
  br i1 %.0, label %29, label %30

29:                                               ; preds = %.thread, %27
  %.pn20 = phi { ptr, i32 } [ %26, %.thread ], [ %28, %27 ]
  call void @__cxa_free_exception(ptr %23) #34
  br label %30

.loopexit:                                        ; preds = %_ZN3nix6SourceclEPcm.exit, %2
  ret void

30:                                               ; preds = %27, %29
  %.pn19 = phi { ptr, i32 } [ %28, %27 ], [ %.pn20, %29 ]
  resume { ptr, i32 } %.pn19

31:                                               ; preds = %25
  unreachable
}